(dp0
Vdynamic
p1
(lp2
Vhttp://www.eecg.toronto.edu/projects.html
p3
asVkhalid
p4
(lp5
Vhttp://www.eecg.toronto.edu/grads.html
p6
asVfacilities
p7
(lp8
S'http://www.eecg.toronto.edu/'
p9
aVhttp://www.eecg.toronto.edu/Welcome.html
p10
aVhttp://www.ece.utoronto.ca
p11
aVhttp://www.eecg.toronto.edu/facilities.html
p12
asVasian
p13
(lp14
Vhttp://www.utoronto.ca
p15
asVconsists
p16
(lp17
g12
asVintegrity
p18
(lp19
g11
asVedward
p20
(lp21
g9
ag10
ag11
asVteaching
p22
(lp23
g11
aVhttp://www.eecg.toronto.edu/~exec/student_guide/Main/index.shtml
p24
asVcarried
p25
(lp26
g12
asVapplied
p27
(lp28
g11
asVupdated
p29
(lp30
g24
asVjacob
p31
(lp32
g6
asVelectronics
p33
(lp34
g9
ag10
ag11
ag12
asVschool
p35
(lp36
g15
asVhossein
p37
(lp38
g6
asVcmc
p39
(lp40
g12
asVveneris
p41
(lp42
Vhttp://www.eecg.toronto.edu/faculty.html
p43
ag3
asVcmu
p44
(lp45
g43
asVenjoy
p46
(lp47
g11
asVleaders
p48
(lp49
g11
asVtransmogrifier
p50
(lp51
g3
asVmarek
p52
(lp53
g6
asVlemieux
p54
(lp55
g6
asVdirect
p56
(lp57
g12
aVhttp://www.eecg.toronto.edu/tech_reports/index.html
p58
asVcomplement
p59
(lp60
g9
ag10
asVtalks
p61
(lp62
g11
asVpande
p63
(lp64
g6
asVmachines
p65
(lp66
g12
asVestablished
p67
(lp68
g9
ag10
asVbipolar
p69
(lp70
g12
asVconduct
p71
(lp72
g15
asVnew
p73
(lp74
Vhttp://www.mapquest.com/maps/map.adp?countryid=41&addtohistory=&country=CA&address=10+King%27s+College+Road&city=Toronto&state=ON&zipcode=M5S+3G4&submit=Get+Map
p75
aVhttp://www.mapquest.com/maps?address=10+King%27s+College+Road&city=Toronto&state=ON&zipcode=M5S+3G4&country=CA
p76
ag11
ag24
ag15
asVtips
p77
(lp78
g15
asVcompilers
p79
(lp80
g12
ag3
asVjasmine
p81
(lp82
g3
asVaffiliates
p83
(lp84
g43
asVreported
p85
(lp86
g11
asVpratt
p87
(lp88
g9
ag10
ag6
ag43
ag12
ag3
ag58
asV100
p89
(lp90
g12
asVfahim
p91
(lp92
g6
asVstudy
p93
(lp94
g15
ag12
asVreports
p95
(lp96
g9
ag10
ag58
asVakl
p97
(lp98
g6
asVjoshua
p99
(lp100
Vhttp://www.eecg.toronto.edu/~exec/thesis_lib/
p101
asVsecure
p102
(lp103
g3
asVempyre
p104
(lp105
g75
ag76
asVreplace
p106
(lp107
g11
asVspecifics
p108
(lp109
g24
asVunit
p110
(lp111
g11
asVreflected
p112
(lp113
g24
asVtype
p114
(lp115
g11
ag24
ag15
asVqdo
p116
(lp117
g101
asVphone
p118
(lp119
g24
asVreal-time
p120
(lp121
g15
ag12
asVemeritus
p122
(lp123
g43
asVshahid
p124
(lp125
g6
asVjoin
p126
(lp127
g11
asVrights
p128
(lp129
g15
asVwork
p130
(lp131
g24
ag12
asVhenry
p132
(lp133
g6
asVmy
p134
(lp135
g24
asVphang
p136
(lp137
g6
asVdefer
p138
(lp139
g75
ag76
asVworkstations
p140
(lp141
g12
asVwang
p142
(lp143
g6
asVgive
p144
(lp145
g24
ag15
asVimplementations
p146
(lp147
g12
asVdavid
p148
(lp149
g6
ag43
asVhhmts
p150
(lp151
g101
asVend
p152
(lp153
g75
ag76
ag11
ag15
ag101
asVfeature
p154
(lp155
g15
asVmachine
p156
(lp157
g101
asVhow
p158
(lp159
g11
asV8um
p160
(lp161
g12
asVfieldcustom
p162
(lp163
g15
asVlab
p164
(lp165
g24
ag3
asVparallel
p166
(lp167
g12
ag3
ag101
asVattracts
p168
(lp169
g11
asVsheikholeslami
p170
(lp171
g6
asVethernet
p172
(lp173
g12
asVathletes
p174
(lp175
g15
asVneto
p176
(lp177
g6
asVfeedback
p178
(lp179
g15
asVoffice
p180
(lp181
g11
asVtelecom
p182
(lp183
g12
asVvary
p184
(lp185
g24
asVthesis
p186
(lp187
g9
ag10
ag11
ag101
asVwun
p188
(lp189
g6
asVimg
p190
(lp191
g24
ag15
asVpersonal
p192
(lp193
g3
asVwilton
p194
(lp195
g6
asVteaching-stream
p196
(lp197
g43
asVmatured
p198
(lp199
g3
asVvalavan
p200
(lp201
g6
asVeugene
p202
(lp203
g43
asVeyal
p204
(lp205
g43
asVrespond-proxy
p206
(lp207
g75
ag76
asVjan06
p208
(lp209
g9
ag10
asVsafwat
p210
(lp211
g43
asVacademics
p212
(lp213
g15
asVernesto
p214
(lp215
g6
asVthey
p216
(lp217
g12
asValex
p218
(lp219
g6
asVarrow
p220
(lp221
g24
asVeach
p222
(lp223
g12
asVgovindan
p224
(lp225
g6
asV745i
p226
(lp227
g12
asVrstaff
p228
(lp229
g9
ag10
asVfinancial
p230
(lp231
g11
asVseries
p232
(lp233
g9
ag10
ag11
asVmchardy
p234
(lp235
g6
asVaarabi
p236
(lp237
g6
ag43
ag3
asVmadhusudan
p238
(lp239
g6
ag101
asVgoo
p240
(lp241
g15
asVszodyfutxr
p242
(lp243
g15
asVnetwork
p244
(lp245
g24
ag12
ag101
asVparallelizing
p246
(lp247
g3
asVrd
p248
(lp249
g75
ag76
asVdaniel
p250
(lp251
g6
asVxu
p252
(lp253
g6
asVforth
p254
(lp255
g43
asVgrbic
p256
(lp257
g6
asVnavid
p258
(lp259
g6
asVassociate
p260
(lp261
g11
ag43
asVclearfix
p262
(lp263
g15
asVbldg
p264
(lp265
g9
ag10
ag6
ag43
ag12
ag3
ag58
asVjennie
p266
(lp267
g6
asVmbit
p268
(lp269
g12
asVcreated
p270
(lp271
g24
ag101
asVrefugee
p272
(lp273
g15
asVdays
p274
(lp275
g15
asVati
p276
(lp277
g43
asVsilicon
p278
(lp279
g12
asVisn
p280
(lp281
g6
asV180px
p282
(lp283
g15
asVstewart
p284
(lp285
g43
asVsize
p286
(lp287
g9
ag10
ag12
asVresearcher
p288
(lp289
g15
asVgusat
p290
(lp291
g6
asVelectronic
p292
(lp293
g58
asVtor
p294
(lp295
g6
asVtop
p296
(lp297
g9
ag10
ag11
ag24
asVtoo
p298
(lp299
g24
asVgilbert
p300
(lp301
g6
asVjohn
p302
(lp303
g6
asVariannejad
p304
(lp305
g6
asVcentered
p306
(lp307
g12
asVwisdom
p308
(lp309
g15
asVonaissi
p310
(lp311
g6
asVbingheng
p312
(lp313
g6
asVtoronto
p314
(lp315
g9
ag75
ag76
ag10
ag11
ag24
ag15
ag6
ag43
ag12
ag3
ag58
asVlacavera
p316
(lp317
g11
asVahmed
p318
(lp319
g6
asVtarget
p320
(lp321
g15
asVseminars
p322
(lp323
g9
ag10
ag11
asVmatter
p324
(lp325
g24
asVclosesurvey
p326
(lp327
g15
asVraj
p328
(lp329
g6
asVeslami
p330
(lp331
g6
asVtells
p332
(lp333
g11
asVcontents
p334
(lp335
g24
asVmoayad
p336
(lp337
g6
asV-
p338
(lp339
g75
ag76
ag11
ag15
ag43
asVbrandon
p340
(lp341
g6
asVderek
p342
(lp343
g6
asVendif
p344
(lp345
g75
ag76
ag11
ag15
asVoptimized
p346
(lp347
g11
asVrogers
p348
(lp349
g9
ag10
ag11
asVmedical
p350
(lp351
g15
asValumni
p352
(lp353
g11
ag15
asVsegulja
p354
(lp355
g6
asVtech
p356
(lp357
g58
asVvries
p358
(lp359
g6
asVbateman
p360
(lp361
g6
asVdot
p362
(lp363
g24
asVlewis
p364
(lp365
g43
asVfleming
p366
(lp367
g9
ag10
ag6
ag43
ag12
ag3
ag58
asVsolutions
p368
(lp369
g11
asVsubmit
p370
(lp371
g58
asVimplementation
p372
(lp373
g9
ag10
ag12
asVrico
p374
(lp375
g6
asVannounce
p376
(lp377
g11
asVmeng
p378
(lp379
g11
asVoct
p380
(lp381
g101
asVdo
p382
(lp383
g24
asVdd
p384
(lp385
g43
asVde
p386
(lp387
g6
ag43
asVda
p388
(lp389
g101
asVreport
p390
(lp391
g11
ag58
asVdt
p392
(lp393
g43
asVsandy
p394
(lp395
g6
asVruns
p396
(lp397
g12
asVon-board
p398
(lp399
g12
asVlabrecque
p400
(lp401
g101
asVarchitecture
p402
(lp403
g3
asVtrevis
p404
(lp405
g6
asVrespond
p406
(lp407
g75
ag76
asVtesting
p408
(lp409
g12
ag3
asVanalytics
p410
(lp411
g11
asVabdelrahman
p412
(lp413
g43
ag3
asVsubject
p414
(lp415
g24
asV03
p416
(lp417
g101
asVmitch
p418
(lp419
g6
asV52238ccb1eee8ac14a39fc422e25ebe7-es5-shim
p420
(lp421
g75
ag76
asVbrewster
p422
(lp423
g6
asV08
p424
(lp425
g24
asVartificial
p426
(lp427
g11
ag15
asVwe
p428
(lp429
g11
ag24
ag15
ag12
asVravindran
p430
(lp431
g6
asVhowever
p432
(lp433
g24
asVsoutheast
p434
(lp435
g15
asVwu
p436
(lp437
g6
asVhere
p438
(lp439
g24
ag15
ag58
asVcarbon
p440
(lp441
g11
asVpackages
p442
(lp443
g12
asVmulti-sensor
p444
(lp445
g3
asVimprove
p446
(lp447
g15
asVboardman
p448
(lp449
g6
asVfault
p450
(lp451
g3
asVshahriar
p452
(lp453
g6
asVagainst
p454
(lp455
g15
asVreceives
p456
(lp457
g11
asVlogic
p458
(lp459
g3
asVcom
p460
(lp461
g75
ag76
ag11
asVcol
p462
(lp463
g15
asVheight
p464
(lp465
g24
asVtarek
p466
(lp467
g43
asVinitiative
p468
(lp469
g15
asVtony
p470
(lp471
g11
asVtrust
p472
(lp473
g101
asVchrome
p474
(lp475
g11
asVfri
p476
(lp477
g101
asVkhaled
p478
(lp479
g6
asVbeen
p480
(lp481
g24
asVmarquardt
p482
(lp483
g6
asVflexible
p484
(lp485
g11
asVwebsite
p486
(lp487
g11
asVlife
p488
(lp489
g11
ag15
asVdave
p490
(lp491
g43
asVcatch
p492
(lp493
g11
asVmohammad
p494
(lp495
g6
asVtang
p496
(lp497
g6
asVshahramian
p498
(lp499
g6
asVic
p500
(lp501
g12
asVie
p502
(lp503
g75
ag76
ag11
ag15
asVid
p504
(lp505
g75
ag76
ag11
ag15
asVpodaima
p506
(lp507
g6
asVif
p508
(lp509
g75
ag76
ag11
ag15
ag6
asVgrown
p510
(lp511
g9
ag10
asVdattatraya
p512
(lp513
g6
asVthings
p514
(lp515
g11
asVformat
p516
(lp517
g58
asVelliott
p518
(lp519
g6
asVseveral
p520
(lp521
g9
ag10
asV--td
p522
(lp523
g24
asVshtml
p524
(lp525
g24
asVpublished
p526
(lp527
g58
asVportal
p528
(lp529
g15
asVprograms
p530
(lp531
g11
ag15
asVcharlie
p532
(lp533
g43
asVacademic
p534
(lp535
g11
asVcontact
p536
(lp537
g11
ag6
asVbeacham
p538
(lp539
g6
asVcentres
p540
(lp541
g11
asVleft
p542
(lp543
g24
asVphoto
p544
(lp545
g15
asVassigned
p546
(lp547
g12
asVhuman
p548
(lp549
g15
ag3
asVyet
p550
(lp551
g11
asVmohamed
p552
(lp553
g6
asVtomasz
p554
(lp555
g6
asVhan
p556
(lp557
g6
asVtagline
p558
(lp559
g75
ag76
asVeasy
p560
(lp561
g12
asVvalign
p562
(lp563
g9
ag10
ag24
asVleading-edge
p564
(lp565
g9
ag10
asVplaceholders
p566
(lp567
g75
ag76
asVhas
p568
(lp569
g9
ag10
ag11
ag12
asVrecaptcha
p570
(lp571
g75
ag76
asVpossible
p572
(lp573
g58
asVsupervisors
p574
(lp575
g24
asV1990-2000
p576
(lp577
g58
asV50
p578
(lp579
g15
ag101
asVspecific
p580
(lp581
g24
asVinformative
p582
(lp583
g11
asVblock-block-91
p584
(lp585
g15
asVsecurity
p586
(lp587
g24
ag3
asVsignal
p588
(lp589
g3
asVworldwide
p590
(lp591
g12
asVwww
p592
(lp593
g9
ag10
ag11
ag15
ag43
ag12
asVright
p594
(lp595
g11
asVpeople
p596
(lp597
g9
ag10
ag15
asVjianwen
p598
(lp599
g43
asV3-various
p600
(lp601
g15
asVaria-hidden
p602
(lp603
g15
asVanimate
p604
(lp605
g15
asVmazen
p606
(lp607
g6
asVico
p608
(lp609
g11
asVfor
p610
(lp611
g9
ag10
ag11
ag24
ag15
ag12
ag3
ag101
asVcomments
p612
(lp613
g24
asVics
p614
(lp615
g43
asVrepository
p616
(lp617
g58
asVardalan
p618
(lp619
g6
asV-------------------------------------------------------------------------------------
p620
(lp621
g3
asVarchitectural
p622
(lp623
g3
asVgraduated
p624
(lp625
g6
asVchuan
p626
(lp627
g6
asVplus
p628
(lp629
g24
asVeight
p630
(lp631
g9
ag10
asVefforts
p632
(lp633
g9
ag10
asVjavad
p634
(lp635
g6
asVfacility
p636
(lp637
g12
ag101
asVfiume
p638
(lp639
g43
asVsupport
p640
(lp641
g11
ag12
ag3
asVcloud-based
p642
(lp643
g11
asVclass
p644
(lp645
g15
asVgif
p646
(lp647
g75
ag76
ag24
asVanderson
p648
(lp649
g6
ag43
asVjoseph
p650
(lp651
g6
asVwordpress
p652
(lp653
g11
asVgia
p654
(lp655
g6
asV35um
p656
(lp657
g12
asVwas
p658
(lp659
g9
ag10
asVsynthesis
p660
(lp661
g3
asVraman
p662
(lp663
g6
ag101
asVhead
p664
(lp665
g11
asVoffering
p666
(lp667
g9
ag10
asVwittig
p668
(lp669
g6
asVmultiprocessor
p670
(lp671
g12
ag101
asVcatalyst
p672
(lp673
g11
asVkyu-sik
p674
(lp675
g6
asVtrue
p676
(lp677
g15
asVzilic
p678
(lp679
g6
asVeconomic
p680
(lp681
g15
asVabdelkhalek
p682
(lp683
g6
asVatta
p684
(lp685
g6
asVjongsok
p686
(lp687
g6
asVphil
p688
(lp689
g43
asVcomputing
p690
(lp691
g12
ag3
asVpostscript
p692
(lp693
g58
asVmagellan
p694
(lp695
g11
asVarchive
p696
(lp697
g11
asVfloor
p698
(lp699
g9
ag10
ag12
ag3
ag43
asVnajm
p700
(lp701
g43
ag3
asVzhong
p702
(lp703
g6
asVwhen
p704
(lp705
g24
asVmatosevic
p706
(lp707
g6
asVhumberto
p708
(lp709
g6
asVwelcome
p710
(lp711
g11
ag24
ag15
asVfibre-optic
p712
(lp713
g12
asVjones
p714
(lp715
g6
asVottawa
p716
(lp717
g12
asVreception
p718
(lp719
g11
asVtime
p720
(lp721
g9
ag10
ag15
asVazizi
p722
(lp723
g6
asVron
p724
(lp725
g43
asVskip
p726
(lp727
g15
asVglobal
p728
(lp729
g15
asVrod
p730
(lp731
g6
asVfocus
p732
(lp733
g11
asVthemes
p734
(lp735
g11
ag15
asVmanager
p736
(lp737
g75
ag76
ag15
asVper
p738
(lp739
g11
ag15
ag58
asVchair
p740
(lp741
g11
ag43
asVrow
p742
(lp743
g15
asVgraph
p744
(lp745
g101
asV0
p746
(lp747
g9
ag10
ag24
ag12
asVbrown
p748
(lp749
g43
ag3
asVzhang
p750
(lp751
g6
asVsaldana
p752
(lp753
g101
asVmicroprocessors
p754
(lp755
g12
asVmc68000
p756
(lp757
g12
asVpresented
p758
(lp759
g24
asVflipbook
p760
(lp761
g11
asVleave
p762
(lp763
g15
asVp
p764
(lp765
g15
ag12
asVteam
p766
(lp767
g15
asVquick
p768
(lp769
g11
ag15
asVgaudet
p770
(lp771
g6
asVsige
p772
(lp773
g12
asVfarkas
p774
(lp775
g6
asVdiscover
p776
(lp777
g11
asVgoel
p778
(lp779
g43
ag3
asVshares
p780
(lp781
g11
asVcurrent
p782
(lp783
g15
ag6
ag12
asVinternational
p784
(lp785
g11
ag24
ag15
asVboost
p786
(lp787
g11
asValing
p788
(lp789
g24
asVgroups
p790
(lp791
g9
ag10
asVchange
p792
(lp793
g24
asVcanadian
p794
(lp795
g11
ag12
asVchalmers
p796
(lp797
g6
asVstudies
p798
(lp799
g9
ag10
ag11
ag43
asVuseful
p800
(lp801
g24
asVankit
p802
(lp803
g6
asVelectromagnetics
p804
(lp805
g11
asVcanis
p806
(lp807
g6
asVfooter-first
p808
(lp809
g15
asVsports
p810
(lp811
g15
asVstylesheet
p812
(lp813
g11
ag15
asVsirish
p814
(lp815
g6
asVhttps
p816
(lp817
g75
ag76
ag11
ag15
asVmemory
p818
(lp819
g12
asVjacobsen
p820
(lp821
g43
ag3
ag101
asVcurriculum
p822
(lp823
g11
asVdowntown
p824
(lp825
g15
asVorganizations
p826
(lp827
g11
asVmodified
p828
(lp829
g101
asVhardest
p830
(lp831
g15
asVprinting
p832
(lp833
g24
asVzhai
p834
(lp835
g6
asVcan
p836
(lp837
g11
ag15
ag12
ag58
asVcam
p838
(lp839
g12
asVolszewski
p840
(lp841
g6
asVmaking
p842
(lp843
g101
asVcad
p844
(lp845
g12
ag3
asVdedicated
p846
(lp847
g12
asVchechik
p848
(lp849
g43
asVkenneth
p850
(lp851
g43
asVdecember
p852
(lp853
g15
ag101
asVp0as3a
p854
(lp855
g15
asVfieldhtmlvideomp4
p856
(lp857
g15
asVdennis
p858
(lp859
g6
asVmonitoring
p860
(lp861
g75
ag76
asVdivided
p862
(lp863
g9
ag10
asVmunk
p864
(lp865
g15
asVprovisioning
p866
(lp867
g3
asVchemical
p868
(lp869
g11
asVrubil
p870
(lp871
g6
asVsafarpour
p872
(lp873
g6
asVmap
p874
(lp875
g15
asVinformation
p876
(lp877
g11
ag24
ag3
asVmay
p878
(lp879
g24
ag101
asVanalyticator
p880
(lp881
g11
asVworby
p882
(lp883
g101
asVapplications
p884
(lp885
g12
ag101
asVdate
p886
(lp887
g15
asVsuch
p888
(lp889
g12
asVdata
p890
(lp891
g11
ag15
ag3
asVes5-shim
p892
(lp893
g75
ag76
asVsr
p894
(lp895
g9
ag10
ag11
asVso
p896
(lp897
g6
ag12
asVhassan
p898
(lp899
g6
asVimportant-dates
p900
(lp901
g15
asVmoshovos
p902
(lp903
g43
ag3
asVyears
p904
(lp905
g11
asVprofessors
p906
(lp907
g9
ag10
ag11
asVcourse
p908
(lp909
g9
ag10
asVnbsp
p910
(lp911
g9
ag10
ag11
ag15
ag6
ag43
ag12
ag58
asVcuts
p912
(lp913
g101
asVpointer
p914
(lp915
g101
asVgroup
p916
(lp917
g9
ag10
ag24
ag6
ag43
ag12
ag3
ag58
ag101
asVgte
p918
(lp919
g15
asVinternationally
p920
(lp921
g9
ag10
asVgtm
p922
(lp923
g75
ag76
asVfpgas
p924
(lp925
g12
asVpolicy
p926
(lp927
g11
asVmail
p928
(lp929
g24
asVmain
p930
(lp931
g11
ag15
asVedmond
p932
(lp933
g6
asVnot
p934
(lp935
g24
asVnow
p936
(lp937
g11
asVname
p938
(lp939
g6
asV728x15
p940
(lp941
g24
asVjanuary
p942
(lp943
g101
asVwong
p944
(lp945
g6
ag43
ag3
asVyear
p946
(lp947
g11
ag24
ag15
ag58
asVcanada
p948
(lp949
g9
ag10
ag11
ag6
ag43
ag12
ag3
ag58
asVcontainer
p950
(lp951
g11
ag15
asVspace
p952
(lp953
g15
asVinternet
p954
(lp955
g12
asVspan
p956
(lp957
g15
asVkeith
p958
(lp959
g6
asVsite-logo
p960
(lp961
g15
asVhard-copies
p962
(lp963
g58
asVprogramming
p964
(lp965
g101
asVturn
p966
(lp967
g11
asVfirst
p968
(lp969
g11
ag101
asVcanada150
p970
(lp971
g15
asVone
p972
(lp973
g9
ag10
asVcybernetics
p974
(lp975
g3
asVfast
p976
(lp977
g12
asVcorporations
p978
(lp979
g9
ag10
asVcurrenlty
p980
(lp981
g12
asVengineer
p982
(lp983
g11
asVcity
p984
(lp985
g11
ag15
asVgiven
p986
(lp987
g9
ag10
asVian
p988
(lp989
g6
asVwidth
p990
(lp991
g24
ag15
asVscarborough
p992
(lp993
g15
asVnational
p994
(lp995
g15
asVexcellent
p996
(lp997
g11
asVthat
p998
(lp999
g11
ag24
ag15
ag12
asVpagiamtzis
p1000
(lp1001
g6
asVgennum
p1002
(lp1003
g12
asVcopy
p1004
(lp1005
g11
asVthan
p1006
(lp1007
g11
ag15
ag12
asVpng
p1008
(lp1009
g15
asVfooter-second
p1010
(lp1011
g15
asVretargetable
p1012
(lp1013
g3
asV10
p1014
(lp1015
g9
ag75
ag76
ag10
ag11
ag6
ag43
ag12
ag3
ag58
asV13
p1016
(lp1017
g101
asV12
p1018
(lp1019
g101
asV15
p1020
(lp1021
g24
asV16
p1022
(lp1023
g15
asVfuture
p1024
(lp1025
g15
asVcards
p1026
(lp1027
g24
asVtechnologists
p1028
(lp1029
g9
ag10
asVphotosynthesis
p1030
(lp1031
g11
asV3902
p1032
(lp1033
g11
asVtopics
p1034
(lp1035
g75
ag76
ag24
asVpremier
p1036
(lp1037
g9
ag10
asVany
p1038
(lp1039
g9
ag10
asVkevin
p1040
(lp1041
g6
asVelsewhere
p1042
(lp1043
g24
asV4-campuses
p1044
(lp1045
g15
asVprosperity
p1046
(lp1047
g11
asVfpga
p1048
(lp1049
g3
asVsankar
p1050
(lp1051
g6
asVanswering
p1052
(lp1053
g24
asVnote
p1054
(lp1055
g24
asVtake
p1056
(lp1057
g15
asVonline
p1058
(lp1059
g9
ag10
ag11
ag101
asVhigh-technology
p1060
(lp1061
g9
ag10
asVkasra
p1062
(lp1063
g6
asVtornado
p1064
(lp1065
g3
asVbetz
p1066
(lp1067
g6
ag43
asVvisitors
p1068
(lp1069
g15
asVamerica
p1070
(lp1071
g11
asVering
p1072
(lp1073
g12
asVicon
p1074
(lp1075
g11
ag15
asVannum
p1076
(lp1077
g11
asVproud
p1078
(lp1079
g11
asVsohi
p1080
(lp1081
g6
asVprofessional
p1082
(lp1083
g11
asVsenior
p1084
(lp1085
g43
asVkaviani
p1086
(lp1087
g6
asVworkshops
p1088
(lp1089
g11
asVmowry
p1090
(lp1091
g43
asVtitle
p1092
(lp1093
g15
ag101
asVwritten
p1094
(lp1095
g24
asVonly
p1096
(lp1097
g58
asVgoing
p1098
(lp1099
g11
asVget
p1100
(lp1101
g6
asVassistant
p1102
(lp1103
g43
asVbetween
p1104
(lp1105
g101
asVquality-of-service
p1106
(lp1107
g3
asVcelebrate
p1108
(lp1109
g11
asV1827
p1110
(lp1111
g15
asVfinishing
p1112
(lp1113
g24
asVwhere
p1114
(lp1115
g24
asVvision
p1116
(lp1117
g3
asVcollege
p1118
(lp1119
g9
ag75
ag76
ag10
ag11
ag6
ag43
ag12
ag3
ag58
asVsean
p1120
(lp1121
g6
asVtrace-based
p1122
(lp1123
g101
asVbradel
p1124
(lp1125
g6
asVconcern
p1126
(lp1127
g11
asVways
p1128
(lp1129
g15
asVreview
p1130
(lp1131
g11
asVsites
p1132
(lp1133
g15
asV3
p1134
(lp1135
g9
ag10
ag11
ag43
ag12
ag3
ag101
asVfieldvideo
p1136
(lp1137
g15
asVx27
p1138
(lp1139
g75
ag76
asVreading
p1140
(lp1141
g11
asVabdelfattah
p1142
(lp1143
g6
asVnotice
p1144
(lp1145
g24
asVinfrastructure
p1146
(lp1147
g11
ag101
asVjobs
p1148
(lp1149
g24
asVaugust
p1150
(lp1151
g15
asVgender-based
p1152
(lp1153
g15
asVsparc
p1154
(lp1155
g12
asVawards
p1156
(lp1157
g11
asVarticle
p1158
(lp1159
g11
ag15
asVjs
p1160
(lp1161
g75
ag76
asVdates
p1162
(lp1163
g24
asVfavicons
p1164
(lp1165
g11
asVsuccesses
p1166
(lp1167
g11
asVmany
p1168
(lp1169
g11
ag12
asVregion
p1170
(lp1171
g15
asVvrg
p1172
(lp1173
g12
asVmann
p1174
(lp1175
g43
ag3
asVnearby
p1176
(lp1177
g75
ag76
asVamong
p1178
(lp1179
g11
asVpow
p1180
(lp1181
g3
asVmehrdad
p1182
(lp1183
g6
asV60
p1184
(lp1185
g9
ag10
asV64
p1186
(lp1187
g11
asVmapquest
p1188
(lp1189
g75
ag76
asVinformed
p1190
(lp1191
g24
asVmark
p1192
(lp1193
g6
asVsessional
p1194
(lp1195
g11
asVmary
p1196
(lp1197
g15
asVengine
p1198
(lp1199
g12
asVandrew
p1200
(lp1201
g24
ag6
asVgoogle_ad_client
p1202
(lp1203
g24
asVformer
p1204
(lp1205
g11
ag6
asVprotocols
p1206
(lp1207
g12
asVsound
p1208
(lp1209
g3
asVthese
p1210
(lp1211
g12
asVresidence
p1212
(lp1213
g11
asVvranesic
p1214
(lp1215
g6
ag43
ag3
asVorientation
p1216
(lp1217
g11
asVdonors
p1218
(lp1219
g15
asVmarcel
p1220
(lp1221
g6
asVcluster
p1222
(lp1223
g12
asVfeygin
p1224
(lp1225
g6
asVprotein
p1226
(lp1227
g15
asVtechnology
p1228
(lp1229
g43
asVbtn-grey
p1230
(lp1231
g15
asVmedia
p1232
(lp1233
g11
ag15
asVconfigurable
p1234
(lp1235
g101
asVhtml
p1236
(lp1237
g9
ag75
ag76
ag10
asVdocument
p1238
(lp1239
g24
ag58
asVevents
p1240
(lp1241
g9
ag10
ag11
ag15
asVstatus
p1242
(lp1243
g15
asVjeffrey
p1244
(lp1245
g101
asVvoss
p1246
(lp1247
g43
ag3
ag101
asVrunning
p1248
(lp1249
g24
asVrenewable
p1250
(lp1251
g11
asVrespond-redirect
p1252
(lp1253
g75
ag76
asVtracking
p1254
(lp1255
g75
ag76
ag11
asVno
p1256
(lp1257
g58
asVwithout
p1258
(lp1259
g24
asV11
p1260
(lp1261
g12
asVmodel
p1262
(lp1263
g101
asVlaboratories
p1264
(lp1265
g12
asVtouch
p1266
(lp1267
g11
asVinterstitial
p1268
(lp1269
g75
ag76
asVrose
p1270
(lp1271
g43
ag3
asVwortman
p1272
(lp1273
g43
asV4
p1274
(lp1275
g11
asVrelavent
p1276
(lp1277
g24
asVcareers
p1278
(lp1279
g15
asVaround
p1280
(lp1281
g9
ag10
ag11
ag12
asVbryan
p1282
(lp1283
g6
asVamy
p1284
(lp1285
g6
asV8217
p1286
(lp1287
g11
asVworld
p1288
(lp1289
g9
ag10
asVdiv
p1290
(lp1291
g15
asVbalatsos
p1292
(lp1293
g6
asVintel
p1294
(lp1295
g43
asVpatrick
p1296
(lp1297
g6
asVdownward
p1298
(lp1299
g11
asVnode
p1300
(lp1301
g15
asVuppercase
p1302
(lp1303
g15
asVimages
p1304
(lp1305
g24
asVprovided
p1306
(lp1307
g58
asVscholarships
p1308
(lp1309
g11
asVqiang
p1310
(lp1311
g6
asVlegal
p1312
(lp1313
g75
ag76
asVpower
p1314
(lp1315
g3
asVcompiler
p1316
(lp1317
g3
asVsrc
p1318
(lp1319
g75
ag76
ag24
asVok
p1320
(lp1321
g15
asVnhung
p1322
(lp1323
g15
asVchoi
p1324
(lp1325
g6
asVindustry
p1326
(lp1327
g11
asVviolence
p1328
(lp1329
g15
asValtera
p1330
(lp1331
g43
asVzaky
p1332
(lp1333
g43
ag3
asVcol-md-12
p1334
(lp1335
g15
asVchow
p1336
(lp1337
g6
ag43
ag3
ag101
asVgregory
p1338
(lp1339
g43
asV32x32
p1340
(lp1341
g15
asVos
p1342
(lp1343
g3
asVroad
p1344
(lp1345
g9
ag10
ag11
ag6
ag43
ag12
ag3
ag58
asVcommunication
p1346
(lp1347
g12
asVimage
p1348
(lp1349
g15
asVplg2
p1350
(lp1351
g43
asVaccounts
p1352
(lp1353
g24
asVcent
p1354
(lp1355
g11
ag15
asVhomeless
p1356
(lp1357
g15
asVyour
p1358
(lp1359
g11
ag24
ag6
asVher
p1360
(lp1361
g15
asVarea
p1362
(lp1363
g12
asVthere
p1364
(lp1365
g12
asVstart
p1366
(lp1367
g15
ag101
asVlow
p1368
(lp1369
g3
asVfarid
p1370
(lp1371
g43
asVgort
p1372
(lp1373
g6
asVtechnologies
p1374
(lp1375
g43
ag12
asVwith
p1376
(lp1377
g9
ag10
ag11
ag15
ag12
ag58
asVoctober
p1378
(lp1379
g15
asVapplying
p1380
(lp1381
g9
ag10
asVenright
p1382
(lp1383
g43
ag3
asVchappel
p1384
(lp1385
g6
asVmanuel
p1386
(lp1387
g101
asVkostas
p1388
(lp1389
g6
asVfelix
p1390
(lp1391
g6
asVmoved
p1392
(lp1393
g6
asVgeneral
p1394
(lp1395
g11
asVas
p1396
(lp1397
g15
ag12
asVasynchronous
p1398
(lp1399
g3
asVfile
p1400
(lp1401
g12
asVcables
p1402
(lp1403
g12
asVfill
p1404
(lp1405
g6
ag58
asVagain
p1406
(lp1407
g15
asVideally
p1408
(lp1409
g11
asVyogi
p1410
(lp1411
g75
ag76
asVgraduate
p1412
(lp1413
g9
ag10
ag11
ag24
ag6
ag43
ag12
ag101
asVfield
p1414
(lp1415
g15
asV5
p1416
(lp1417
g11
ag24
ag15
asVshojania
p1418
(lp1419
g6
asVannouncements
p1420
(lp1421
g11
asVyou
p1422
(lp1423
g11
ag24
ag15
ag6
ag58
asVcollaborative
p1424
(lp1425
g11
asVannex
p1426
(lp1427
g9
ag10
ag12
ag3
ag43
asVstudents
p1428
(lp1429
g9
ag10
ag11
ag24
ag15
ag6
asVcarnegie
p1430
(lp1431
g43
asVzeljko
p1432
(lp1433
g6
asVimportant
p1434
(lp1435
g11
asVpoon
p1436
(lp1437
g6
asVbuilding
p1438
(lp1439
g9
ag10
asVnatalie
p1440
(lp1441
g43
asVmasc
p1442
(lp1443
g11
asVutoronto
p1444
(lp1445
g9
ag10
ag11
ag15
ag43
ag12
asVparsons
p1446
(lp1447
g6
asVwebsites
p1448
(lp1449
g11
asVadam
p1450
(lp1451
g6
asVdirectory
p1452
(lp1453
g11
ag15
asVoral
p1454
(lp1455
g11
asVall
p1456
(lp1457
g11
ag15
ag12
ag58
asVfounder
p1458
(lp1459
g11
asVali
p1460
(lp1461
g6
asVsplitting
p1462
(lp1463
g101
asVmonth
p1464
(lp1465
g101
asVcameron
p1466
(lp1467
g6
asVlacy
p1468
(lp1469
g6
asVcontent
p1470
(lp1471
g75
ag76
ag11
ag15
asVicons
p1472
(lp1473
g11
asVtr
p1474
(lp1475
g24
asVopportunities
p1476
(lp1477
g11
asVto
p1478
(lp1479
g9
ag10
ag11
ag24
ag15
ag6
ag12
ag58
asVprogram
p1480
(lp1481
g11
asVelias
p1482
(lp1483
g6
asVtd
p1484
(lp1485
g9
ag10
ag24
asVfaq
p1486
(lp1487
g11
asVfall
p1488
(lp1489
g11
asVengineering-ie-only-css
p1490
(lp1491
g11
asV--
p1492
(lp1493
g24
asVlouis
p1494
(lp1495
g6
asVlist
p1496
(lp1497
g6
asVlarge
p1498
(lp1499
g12
asVform
p1500
(lp1501
g58
asVportable
p1502
(lp1503
g58
asVangelos
p1504
(lp1505
g43
asVted
p1506
(lp1507
g6
asVdesign
p1508
(lp1509
g9
ag10
ag12
asVplugins
p1510
(lp1511
g11
asVlink
p1512
(lp1513
g75
ag76
ag11
ag15
ag12
ag58
asVinvestment
p1514
(lp1515
g11
asVwhat
p1516
(lp1517
g11
ag24
ag15
asVanderso
p1518
(lp1519
g43
asVrichard
p1520
(lp1521
g101
asVsun
p1522
(lp1523
g12
ag101
asVsection
p1524
(lp1525
g11
ag15
asVversion
p1526
(lp1527
g11
asVcompilation
p1528
(lp1529
g3
ag101
asVoperating
p1530
(lp1531
g12
ag3
ag101
asVcompressed
p1532
(lp1533
g58
asVdirections
p1534
(lp1535
g75
ag76
asVnovember
p1536
(lp1537
g15
asVgraduate-courses
p1538
(lp1539
g9
ag10
asVsearch
p1540
(lp1541
g11
ag15
asVexperience
p1542
(lp1543
g9
ag10
ag11
ag15
asVprior
p1544
(lp1545
g58
asVsocial
p1546
(lp1547
g15
asVaction
p1548
(lp1549
g15
asVferzli
p1550
(lp1551
g6
asVimaging
p1552
(lp1553
g3
asVjaseemuddin
p1554
(lp1555
g6
asVacorn
p1556
(lp1557
g15
asVhref
p1558
(lp1559
g9
ag75
ag76
ag10
ag11
ag24
ag15
ag43
asVsilva
p1560
(lp1561
g101
asVtakes
p1562
(lp1563
g11
asVvlsi
p1564
(lp1565
g12
ag3
asV6
p1566
(lp1567
g11
ag15
asVmore
p1568
(lp1569
g11
ag15
ag12
asVmellon
p1570
(lp1571
g43
asVdion
p1572
(lp1573
g6
asVadmissions
p1574
(lp1575
g11
asVf750e28e1c34dfc5cd717a047df88877-respond-proxy
p1576
(lp1577
g75
ag76
asVkulkarni
p1578
(lp1579
g6
asVultrasparc
p1580
(lp1581
g12
asVkeeping
p1582
(lp1583
g24
asVaspect-oriented
p1584
(lp1585
g101
asVmiddle
p1586
(lp1587
g11
asVscience
p1588
(lp1589
g11
ag43
asVlearn
p1590
(lp1591
g11
asVhistory
p1592
(lp1593
g11
ag15
asVbashir
p1594
(lp1595
g6
asVfavicon-32x32
p1596
(lp1597
g15
asVzavari
p1598
(lp1599
g6
asVnumbers
p1600
(lp1601
g24
asV2017-2018
p1602
(lp1603
g11
asVpt484
p1604
(lp1605
g9
ag10
asVprocessors
p1606
(lp1607
g3
ag101
asVclarke
p1608
(lp1609
g43
asVmaps
p1610
(lp1611
g15
asVhajirostam
p1612
(lp1613
g6
asVvideousermanuals
p1614
(lp1615
g11
asVcss
p1616
(lp1617
g11
ag15
asVintended
p1618
(lp1619
g24
asVadvice
p1620
(lp1621
g11
ag24
asVentrepreneurship
p1622
(lp1623
g11
asVfa
p1624
(lp1625
g15
asVfaculty
p1626
(lp1627
g9
ag10
ag11
ag15
ag43
asVuwaterloo
p1628
(lp1629
g43
asVfooter
p1630
(lp1631
g11
ag15
asVyoast
p1632
(lp1633
g11
asVcallback
p1634
(lp1635
g101
asVresponsibility
p1636
(lp1637
g15
asVhelp
p1638
(lp1639
g75
ag76
ag24
ag15
asVseptember
p1640
(lp1641
g101
asVback-to-school
p1642
(lp1643
g15
asVthrough
p1644
(lp1645
g12
ag58
asVits
p1646
(lp1647
g12
asVislam
p1648
(lp1649
g6
asVbaochun
p1650
(lp1651
g43
asVstyle
p1652
(lp1653
g15
asV20
p1654
(lp1655
g24
ag101
asVpcs
p1656
(lp1657
g12
asV29
p1658
(lp1659
g101
asVmanohararajah
p1660
(lp1661
g6
asVplotters
p1662
(lp1663
g12
asVmitel
p1664
(lp1665
g12
asVsystems
p1666
(lp1667
g11
ag15
ag12
ag3
ag101
asVstephen
p1668
(lp1669
g43
asVgood
p1670
(lp1671
g24
asVfood
p1672
(lp1673
g24
asVmales
p1674
(lp1675
g15
asVye
p1676
(lp1677
g6
asVcupe
p1678
(lp1679
g11
asVframework
p1680
(lp1681
g24
asVvaughn
p1682
(lp1683
g6
ag43
asVeasily
p1684
(lp1685
g12
asVgoogle_ad_height
p1686
(lp1687
g24
asVk42
p1688
(lp1689
g3
asVcourses
p1690
(lp1691
g11
ag24
asVneil
p1692
(lp1693
g6
asVgennady
p1694
(lp1695
g6
asVenergy
p1696
(lp1697
g11
asVoppressed
p1698
(lp1699
g15
asVidea
p1700
(lp1701
g24
asVashvin
p1702
(lp1703
g43
asVtodd
p1704
(lp1705
g43
asVtodo
p1706
(lp1707
g15
asVevent
p1708
(lp1709
g15
asVftp
p1710
(lp1711
g58
asVfunding
p1712
(lp1713
g9
ag10
ag11
asVrobert
p1714
(lp1715
g6
asVsince
p1716
(lp1717
g9
ag10
ag15
asVresearch
p1718
(lp1719
g9
ag10
ag11
ag24
ag15
ag6
ag43
ag12
ag3
ag58
asVsafety
p1720
(lp1721
g15
asV7
p1722
(lp1723
g11
asVprint
p1724
(lp1725
g15
asVissue
p1726
(lp1727
g11
ag15
asVsf2001
p1728
(lp1729
g9
ag10
ag6
ag43
ag12
ag3
ag58
asVlocalization
p1730
(lp1731
g3
asVlabs
p1732
(lp1733
g11
ag24
asVterminals
p1734
(lp1735
g12
asVproxy
p1736
(lp1737
g75
ag76
asVmembers
p1738
(lp1739
g11
ag58
asVaziz
p1740
(lp1741
g6
asVguy
p1742
(lp1743
g6
asV_blank
p1744
(lp1745
g15
asVcomputers
p1746
(lp1747
g24
ag12
asVcircuit
p1748
(lp1749
g12
asVtwenty
p1750
(lp1751
g9
ag10
asVarchitectures
p1752
(lp1753
g12
asVding
p1754
(lp1755
g43
asVmajor
p1756
(lp1757
g9
ag10
ag11
ag3
asVstudent
p1758
(lp1759
g9
ag10
ag11
ag24
ag6
ag12
asVnumber
p1760
(lp1761
g12
asVfees
p1762
(lp1763
g11
asVscript
p1764
(lp1765
g75
ag76
ag24
asVleading
p1766
(lp1767
g11
asVstation
p1768
(lp1769
g15
asVjamil
p1770
(lp1771
g6
asVjordan
p1772
(lp1773
g6
asVking
p1774
(lp1775
g9
ag75
ag76
ag10
ag11
ag6
ag43
ag12
ag3
ag58
asVaims
p1776
(lp1777
g11
asVgreg
p1778
(lp1779
g6
asVworkbenches
p1780
(lp1781
g12
asVstress-free
p1782
(lp1783
g11
asVigor
p1784
(lp1785
g6
asVfavicon
p1786
(lp1787
g11
asVpub-9283865947087599
p1788
(lp1789
g24
asVlie
p1790
(lp1791
g43
ag3
ag101
asVlib
p1792
(lp1793
g75
ag76
asVcheck
p1794
(lp1795
g15
asVspeculative
p1796
(lp1797
g101
asVliu
p1798
(lp1799
g6
asVinternal
p1800
(lp1801
g11
asVspecialseminar
p1802
(lp1803
g9
ag10
asVadded
p1804
(lp1805
g6
asVsoares
p1806
(lp1807
g6
asVreach
p1808
(lp1809
g15
ag12
asVstate-of-the-art
p1810
(lp1811
g9
ag10
asV75
p1812
(lp1813
g11
asVsponsored
p1814
(lp1815
g75
ag76
asVposition
p1816
(lp1817
g15
asVservices
p1818
(lp1819
g11
asVbicmos
p1820
(lp1821
g12
asVprobabilistic
p1822
(lp1823
g101
asVgoyal
p1824
(lp1825
g6
asVmobile
p1826
(lp1827
g11
asVsession
p1828
(lp1829
g11
asVhard-copy
p1830
(lp1831
g12
asVfont
p1832
(lp1833
g9
ag10
ag12
asV41gx
p1834
(lp1835
g12
asVfind
p1836
(lp1837
g11
ag24
ag58
asVnorthern
p1838
(lp1839
g12
asVduncan
p1840
(lp1841
g6
asVdistributed
p1842
(lp1843
g3
asV8
p1844
(lp1845
g24
ag15
asVhis
p1846
(lp1847
g11
asVcompiled
p1848
(lp1849
g15
asVshared
p1850
(lp1851
g12
asVduring
p1852
(lp1853
g15
asValexander
p1854
(lp1855
g6
asVm5s
p1856
(lp1857
g9
ag10
ag11
ag6
ag43
ag12
ag3
ag58
asVstored
p1858
(lp1859
g58
asVactivity
p1860
(lp1861
g9
ag10
asVvincent
p1862
(lp1863
g6
asVcarrillo
p1864
(lp1865
g6
asVzebchuk
p1866
(lp1867
g6
asVare
p1868
(lp1869
g9
ag10
ag11
ag24
ag12
ag58
asVseo
p1870
(lp1871
g11
asVstumm
p1872
(lp1873
g43
ag3
ag101
asVproject
p1874
(lp1875
g11
ag15
asVcurrently
p1876
(lp1877
g6
ag12
asVplease
p1878
(lp1879
g24
ag58
asVlibraries
p1880
(lp1881
g15
asVwon
p1882
(lp1883
g24
asVprobably
p1884
(lp1885
g24
asVnumerous
p1886
(lp1887
g12
asVavailable
p1888
(lp1889
g24
ag12
ag58
asVinterfaces
p1890
(lp1891
g101
asVjavascript
p1892
(lp1893
g24
ag15
asVutku
p1894
(lp1895
g6
asVboth
p1896
(lp1897
g9
ag10
ag12
asVfull-time
p1898
(lp1899
g12
asVlast
p1900
(lp1901
g24
ag101
asVcurated
p1902
(lp1903
g15
asVannual
p1904
(lp1905
g11
asVnon-active
p1906
(lp1907
g15
asVconnection
p1908
(lp1909
g12
asVaamodt
p1910
(lp1911
g6
asVpdf
p1912
(lp1913
g58
ag101
asVjeff
p1914
(lp1915
g6
asVcommunity
p1916
(lp1917
g15
asVheader
p1918
(lp1919
g11
ag15
asValumnus
p1920
(lp1921
g11
asVcreate
p1922
(lp1923
g11
asVoutstanding
p1924
(lp1925
g11
asVph
p1926
(lp1927
g11
asVchandler
p1928
(lp1929
g6
asVfirst-year
p1930
(lp1931
g11
asVassorted
p1932
(lp1933
g12
asVimad
p1934
(lp1935
g6
asVgao
p1936
(lp1937
g6
ag101
asVfung
p1938
(lp1939
g6
asVprices
p1940
(lp1941
g24
asVplants
p1942
(lp1943
g11
asVadvocating
p1944
(lp1945
g15
asVlook
p1946
(lp1947
g24
asVreliable
p1948
(lp1949
g3
asVbaecker
p1950
(lp1951
g43
asVoptimization
p1952
(lp1953
g101
asVramin
p1954
(lp1955
g6
asVcooperstock
p1956
(lp1957
g6
asVguide
p1958
(lp1959
g9
ag10
ag24
asV2um
p1960
(lp1961
g12
asV3g4
p1962
(lp1963
g9
ag10
ag11
ag6
ag43
ag12
ag3
ag58
asVczajkowski
p1964
(lp1965
g6
asVaydonat
p1966
(lp1967
g6
asVkwan
p1968
(lp1969
g6
asVjames
p1970
(lp1971
g6
asVfieldlogo
p1972
(lp1973
g15
asVcedomir
p1974
(lp1975
g6
asVprefetching
p1976
(lp1977
g101
asV9
p1978
(lp1979
g75
ag76
ag11
ag15
asVmicroarchitecture
p1980
(lp1981
g3
asVdevelopment
p1982
(lp1983
g9
ag10
asVused
p1984
(lp1985
g12
asVclassmates
p1986
(lp1987
g11
asVkeys
p1988
(lp1989
g24
asVdesks
p1990
(lp1991
g24
asVmoment
p1992
(lp1993
g58
asVyuan
p1994
(lp1995
g43
asVrecent
p1996
(lp1997
g11
ag12
asV2gx
p1998
(lp1999
g12
asVanalysis
p2000
(lp2001
g101
asVhatchery
p2002
(lp2003
g11
asVperson
p2004
(lp2005
g11
ag12
asVcorinna
p2006
(lp2007
g43
asVkelly
p2008
(lp2009
g6
asVdoyle
p2010
(lp2011
g6
asVtsmc
p2012
(lp2013
g12
asVeberts
p2014
(lp2015
g15
asVintervals
p2016
(lp2017
g15
asVquestions
p2018
(lp2019
g24
asVamp
p2020
(lp2021
g11
ag15
asVwearable
p2022
(lp2023
g3
asVloading
p2024
(lp2025
g75
ag76
asVcross-appointed
p2026
(lp2027
g43
asValso
p2028
(lp2029
g12
ag58
asVstoodley
p2030
(lp2031
g6
asVadmission
p2032
(lp2033
g11
asVshortcut
p2034
(lp2035
g11
asVsupersparc
p2036
(lp2037
g12
asVlocation
p2038
(lp2039
g75
ag76
asVcourtney
p2040
(lp2041
g6
asVmarch
p2042
(lp2043
g101
asVzvonko
p2044
(lp2045
g43
asVbig
p2046
(lp2047
g11
ag15
asVinstructors
p2048
(lp2049
g11
asVprojects
p2050
(lp2051
g9
ag10
ag12
ag3
asVblock-block
p2052
(lp2053
g15
asVnasser
p2054
(lp2055
g6
asVahmadi
p2056
(lp2057
g6
asVcommunications
p2058
(lp2059
g11
asVworld-leading
p2060
(lp2061
g11
asVivan
p2062
(lp2063
g6
asVgoogle
p2064
(lp2065
g75
ag76
ag11
ag15
asVsome
p2066
(lp2067
g24
asVback
p2068
(lp2069
g11
ag15
asVtowards
p2070
(lp2071
g101
asVdelorme
p2072
(lp2073
g6
asVnewsletter
p2074
(lp2075
g11
asVbrent
p2076
(lp2077
g6
asVpey
p2078
(lp2079
g11
asVcontacts
p2080
(lp2081
g15
asVheloue
p2082
(lp2083
g6
asVlara
p2084
(lp2085
g43
asVinnovation
p2086
(lp2087
g11
ag15
asVbe
p2088
(lp2089
g11
ag24
ag15
ag6
ag58
asVprocessing
p2090
(lp2091
g12
ag3
asVomidi
p2092
(lp2093
g6
asVbr
p2094
(lp2095
g9
ag10
ag15
asVfeb
p2096
(lp2097
g101
asVby
p2098
(lp2099
g11
ag24
ag15
ag58
asVmost
p2100
(lp2101
g24
ag12
ag58
asVta-min
p2102
(lp2103
g101
asVentrepreneurs
p2104
(lp2105
g11
asVprecomputation
p2106
(lp2107
g101
asVblock
p2108
(lp2109
g15
asVinto
p2110
(lp2111
g9
ag10
asVservers
p2112
(lp2113
g12
asVremembrance
p2114
(lp2115
g15
asVhtml5shiv
p2116
(lp2117
g75
ag76
asVontario
p2118
(lp2119
g9
ag10
ag11
ag6
ag43
ag12
ag3
ag58
asVcomputer
p2120
(lp2121
g9
ag10
ag11
ag24
ag6
ag43
ag12
ag3
ag58
ag101
asVlong
p2122
(lp2123
g24
asVcustom
p2124
(lp2125
g12
ag3
asVhandbook
p2126
(lp2127
g9
ag10
asVandy
p2128
(lp2129
g6
asVinvite
p2130
(lp2131
g11
asVquiescent
p2132
(lp2133
g101
asVling
p2134
(lp2135
g24
ag6
asVline
p2136
(lp2137
g11
asVinfo
p2138
(lp2139
g11
asVzhu
p2140
(lp2141
g43
ag3
asVyadollah
p2142
(lp2143
g6
asVconsist
p2144
(lp2145
g12
asVcircuits
p2146
(lp2147
g12
ag3
asVmiddleware
p2148
(lp2149
g3
ag101
asVup
p2150
(lp2151
g11
ag24
asVus
p2152
(lp2153
g11
ag24
ag15
asVskule
p2154
(lp2155
g11
asVthose
p2156
(lp2157
g12
asVverification
p2158
(lp2159
g3
asVprofessor
p2160
(lp2161
g15
ag43
asVchan
p2162
(lp2163
g6
asVaccessibility
p2164
(lp2165
g11
ag15
asVcoordinator
p2166
(lp2167
g43
asVengineering
p2168
(lp2169
g9
ag10
ag11
ag24
ag6
ag43
ag12
ag3
ag58
asVassociates
p2170
(lp2171
g9
ag10
asVb2s-wrap
p2172
(lp2173
g15
asVkundarewich
p2174
(lp2175
g6
asVelectrical
p2176
(lp2177
g9
ag10
ag11
ag24
ag6
ag43
ag12
ag3
ag58
asVdepartment
p2178
(lp2179
g9
ag10
ag11
ag6
ag43
ag12
ag3
ag58
asVgulak
p2180
(lp2181
g43
ag3
asVgross
p2182
(lp2183
g6
asV83b39192354c624238d8a75763a3d8af-respond
p2184
(lp2185
g75
ag76
asVprepared
p2186
(lp2187
g24
asVwilliam
p2188
(lp2189
g6
asVfa-bullhorn
p2190
(lp2191
g15
asVhighlighting
p2192
(lp2193
g15
asVmqcdn
p2194
(lp2195
g75
ag76
asVfoundry
p2196
(lp2197
g12
asVdepartments
p2198
(lp2199
g9
ag10
asV2001
p2200
(lp2201
g58
asV2006
p2202
(lp2203
g24
ag101
asVcame
p2204
(lp2205
g11
asVcode
p2206
(lp2207
g75
ag76
asVjason
p2208
(lp2209
g6
ag43
asVgr
p2210
(lp2211
g43
asVastronauts
p2212
(lp2213
g15
asVsteve
p2214
(lp2215
g6
ag43
asVedt
p2216
(lp2217
g101
asVedu
p2218
(lp2219
g9
ag10
ag24
ag43
asVgl
p2220
(lp2221
g15
asVissues
p2222
(lp2223
g15
asVparham
p2224
(lp2225
g6
ag43
asVyoung
p2226
(lp2227
g6
asVsend
p2228
(lp2229
g24
ag15
ag6
asVhelps
p2230
(lp2231
g15
asVvisitor
p2232
(lp2233
g11
asVaris
p2234
(lp2235
g6
asVinclude
p2236
(lp2237
g12
asVresources
p2238
(lp2239
g11
ag24
asVwhoweare
p2240
(lp2241
g24
asVoutside
p2242
(lp2243
g12
asVga
p2244
(lp2245
g75
ag76
asVrecreation
p2246
(lp2247
g24
asVmichael
p2248
(lp2249
g6
ag43
asVborys
p2250
(lp2251
g6
asVsandford
p2252
(lp2253
g9
ag10
ag6
ag43
ag12
ag3
ag58
asVdisclaimer
p2254
(lp2255
g24
asVjump
p2256
(lp2257
g15
asVlocated
p2258
(lp2259
g11
asVreunion
p2260
(lp2261
g11
asVgraduating
p2262
(lp2263
g11
asVindex
p2264
(lp2265
g9
ag10
asVindustry-standard
p2266
(lp2267
g12
asVnetworks
p2268
(lp2269
g11
ag12
asVaccess
p2270
(lp2271
g24
ag12
ag58
asVconsistently
p2272
(lp2273
g11
asVexperiment
p2274
(lp2275
g75
ag76
asVbody
p2276
(lp2277
g15
asVlee
p2278
(lp2279
g6
ag43
asVdegree
p2280
(lp2281
g11
asVcommercial
p2282
(lp2283
g12
asVexplore
p2284
(lp2285
g11
ag15
asVfieldbannerspeced
p2286
(lp2287
g15
asVlew
p2288
(lp2289
g6
asVconvert
p2290
(lp2291
g11
asVtechnical
p2292
(lp2293
g9
ag10
ag58
asVinvolved
p2294
(lp2295
g9
ag10
ag12
asV31
p2296
(lp2297
g15
asV30
p2298
(lp2299
g15
asVsurvey
p2300
(lp2301
g15
asVgoogle_ad_slot
p2302
(lp2303
g24
asVexaminations
p2304
(lp2305
g11
asVaddresses
p2306
(lp2307
g11
asVwin
p2308
(lp2309
g11
asVwebmail
p2310
(lp2311
g15
asVgoogle_ad_width
p2312
(lp2313
g24
asVtools
p2314
(lp2315
g12
asVuse
p2316
(lp2317
g9
ag10
ag12
asVandreas
p2318
(lp2319
g43
asVfrom
p2320
(lp2321
g9
ag10
ag11
ag24
ag15
ag43
asVarsovski
p2322
(lp2323
g6
asVchi
p2324
(lp2325
g6
asVnext
p2326
(lp2327
g11
asVcashback
p2328
(lp2329
g75
ag76
asVthemselves
p2330
(lp2331
g24
asVjonathan
p2332
(lp2333
g6
ag43
asVupcoming
p2334
(lp2335
g11
ag15
asVfoundaries
p2336
(lp2337
g12
asVwomen
p2338
(lp2339
g15
asVyaska
p2340
(lp2341
g6
asVthis
p2342
(lp2343
g11
ag24
ag15
ag6
ag12
ag58
asVfieldbanner
p2344
(lp2345
g15
asVpublications
p2346
(lp2347
g15
asVmeet
p2348
(lp2349
g15
asVcontrol
p2350
(lp2351
g11
ag12
asVlinks
p2352
(lp2353
g11
asVprocess
p2354
(lp2355
g12
asVpurposes
p2356
(lp2357
g9
ag10
asVtag
p2358
(lp2359
g75
ag76
ag15
asVtam
p2360
(lp2361
g6
ag101
asVjerger
p2362
(lp2363
g43
ag3
asVeducational
p2364
(lp2365
g9
ag10
asVlesley
p2366
(lp2367
g6
asVbrian
p2368
(lp2369
g6
asVtoosizadeh
p2370
(lp2371
g6
asVsin
p2372
(lp2373
g6
asVstand
p2374
(lp2375
g15
asVeyetap
p2376
(lp2377
g3
asVuoftengineering
p2378
(lp2379
g11
asVmaclean
p2380
(lp2381
g3
ag101
asVhealthcare
p2382
(lp2383
g15
asVexecutives
p2384
(lp2385
g24
asVgior
p2386
(lp2387
g6
asV130
p2388
(lp2389
g12
asVincluding
p2390
(lp2391
g11
ag12
asVwarren
p2392
(lp2393
g6
asVtianyi
p2394
(lp2395
g6
asV1
p2396
(lp2397
g11
ag24
ag15
ag12
ag101
asVb142bed13e727bfcc5c2833f6b02eadd-placeholders
p2398
(lp2399
g75
ag76
asVimmune
p2400
(lp2401
g15
asVli
p2402
(lp2403
g15
ag6
ag43
ag3
asVtcm
p2404
(lp2405
g43
asVlt
p2406
(lp2407
g75
ag76
ag11
asVpermanent
p2408
(lp2409
g12
asVbiomedical
p2410
(lp2411
g11
ag3
asVclusters
p2412
(lp2413
g12
asV2017
p2414
(lp2415
g11
ag15
asV2016
p2416
(lp2417
g11
asVdesigns
p2418
(lp2419
g12
asVdan
p2420
(lp2421
g6
asV831d9bcae260c3d649c24a85372c59cb-html5shiv
p2422
(lp2423
g75
ag76
asVinvestor
p2424
(lp2425
g11
asVday
p2426
(lp2427
g15
asVgoogle-analyticator
p2428
(lp2429
g11
asVuniversity
p2430
(lp2431
g9
ag10
ag11
ag15
ag6
ag43
ag12
ag3
ag58
asVtran
p2432
(lp2433
g15
asVfields
p2434
(lp2435
g11
asVcouncillors
p2436
(lp2437
g15
asVsaghir
p2438
(lp2439
g6
asVdoing
p2440
(lp2441
g24
ag12
asVmeta
p2442
(lp2443
g11
asVstatic
p2444
(lp2445
g15
asVminified
p2446
(lp2447
g15
asVour
p2448
(lp2449
g11
ag15
asVspecial
p2450
(lp2451
g9
ag10
asVout
p2452
(lp2453
g15
ag12
asVdefend
p2454
(lp2455
g15
asVrel
p2456
(lp2457
g75
ag76
ag11
ag15
asVlecture
p2458
(lp2459
g9
ag10
ag11
asVadaptive
p2460
(lp2461
g3
asVsupports
p2462
(lp2463
g9
ag10
asVintegrated
p2464
(lp2465
g12
asVmath
p2466
(lp2467
g43
asVecf
p2468
(lp2469
g43
asVece
p2470
(lp2471
g9
ag10
ag11
ag43
asVhigh-performance
p2472
(lp2473
g12
asVadvisor
p2474
(lp2475
g101
asVstylesheets
p2476
(lp2477
g75
ag76
asVinteraction
p2478
(lp2479
g9
ag10
ag3
asVwaterloo
p2480
(lp2481
g43
asVtimes
p2482
(lp2483
g24
asVconversation
p2484
(lp2485
g15
asVlte
p2486
(lp2487
g75
ag76
asVadrian
p2488
(lp2489
g6
ag101
asVprospective
p2490
(lp2491
g11
asVmuhammad
p2492
(lp2493
g6
asVhans-arno
p2494
(lp2495
g43
asVquality
p2496
(lp2497
g9
ag10
asVplavec
p2498
(lp2499
g6
asVmanagement
p2500
(lp2501
g3
asVprivacy
p2502
(lp2503
g15
asVsystem
p2504
(lp2505
g11
ag12
ag3
asVtheir
p2506
(lp2507
g9
ag10
ag11
asVintelligence
p2508
(lp2509
g15
asVco-op
p2510
(lp2511
g11
asVslides
p2512
(lp2513
g11
asVjuly
p2514
(lp2515
g15
asVproviding
p2516
(lp2517
g24
asVdistinguished
p2518
(lp2519
g9
ag10
ag11
asVcuong
p2520
(lp2521
g6
asVintel-based
p2522
(lp2523
g12
asVpartnership
p2524
(lp2525
g11
asVhave
p2526
(lp2527
g11
ag24
ag6
ag12
asVclose
p2528
(lp2529
g15
asVneed
p2530
(lp2531
g11
ag24
ag15
asVrelic
p2532
(lp2533
g75
ag76
asVborder
p2534
(lp2535
g24
asVdocuments
p2536
(lp2537
g11
asVmin
p2538
(lp2539
g75
ag76
ag11
asVconsoleshiv
p2540
(lp2541
g75
ag76
asVadjunct
p2542
(lp2543
g43
asVwhich
p2544
(lp2545
g12
asVlecturer
p2546
(lp2547
g43
asVlectures
p2548
(lp2549
g11
asVfuels
p2550
(lp2551
g11
asVwho
p2552
(lp2553
g24
asVjorge
p2554
(lp2555
g6
asVsc
p2556
(lp2557
g11
asVconnected
p2558
(lp2559
g11
ag12
asV419792c190c7ea2b4fc13592020b06b7-respond
p2560
(lp2561
g75
ag76
asVwhy
p2562
(lp2563
g11
asVmississauga
p2564
(lp2565
g15
asVthanksgiving
p2566
(lp2567
g15
asVclaclark
p2568
(lp2569
g43
asValizadeh
p2570
(lp2571
g6
asVtext
p2572
(lp2573
g75
ag76
ag11
ag24
ag15
asVcharles
p2574
(lp2575
g6
asVstaff
p2576
(lp2577
g9
ag10
ag11
ag15
ag12
asVpartners
p2578
(lp2579
g11
asVshould
p2580
(lp2581
g24
ag6
asVstereo-motion
p2582
(lp2583
g101
asVlocal
p2584
(lp2585
g12
asVhope
p2586
(lp2587
g11
asVsilas
p2588
(lp2589
g6
asVchips
p2590
(lp2591
g12
asVshaping
p2592
(lp2593
g15
asVareas
p2594
(lp2595
g11
ag3
asVprocesses
p2596
(lp2597
g12
asVmohammed
p2598
(lp2599
g6
asVkhoini-poorfard
p2600
(lp2601
g6
asVgibson
p2602
(lp2603
g6
asVexists
p2604
(lp2605
g12
asVframe
p2606
(lp2607
g11
asVoperates
p2608
(lp2609
g12
asVedition
p2610
(lp2611
g15
asV038
p2612
(lp2613
g11
asV039
p2614
(lp2615
g15
asVwp-content
p2616
(lp2617
g11
asVbtn
p2618
(lp2619
g15
asVluu
p2620
(lp2621
g6
asVralph
p2622
(lp2623
g6
asVstate
p2624
(lp2625
g101
asVmarsha
p2626
(lp2627
g43
asVrouting
p2628
(lp2629
g11
asVclosed
p2630
(lp2631
g15
asVemail
p2632
(lp2633
g11
ag6
asVken
p2634
(lp2635
g6
asVjamieson
p2636
(lp2637
g6
asVcristiana
p2638
(lp2639
g43
asVbilas
p2640
(lp2641
g43
asVefficiency
p2642
(lp2643
g11
asVeecg
p2644
(lp2645
g24
ag43
ag101
asV5054328738
p2646
(lp2647
g24
asVplugin
p2648
(lp2649
g11
asVadmin
p2650
(lp2651
g24
ag101
asVdisplay
p2652
(lp2653
g15
asVetc
p2654
(lp2655
g24
asVestimation
p2656
(lp2657
g101
asVnirmal
p2658
(lp2659
g6
asVca
p2660
(lp2661
g9
ag10
ag11
ag15
ag43
ag12
asVundergraduates
p2662
(lp2663
g11
asVsubscribe
p2664
(lp2665
g11
asVnews
p2666
(lp2667
g11
ag15
asVcs
p2668
(lp2669
g43
asVtable
p2670
(lp2671
g24
asVtechnologist
p2672
(lp2673
g12
asVundergraduate
p2674
(lp2675
g11
asVwilly
p2676
(lp2677
g43
asVforms
p2678
(lp2679
g15
asVsari
p2680
(lp2681
g6
asVtrajectory
p2682
(lp2683
g11
asVnewly-admitted-students
p2684
(lp2685
g15
asVregion-survey
p2686
(lp2687
g15
asVcontroller
p2688
(lp2689
g12
asVgraphics
p2690
(lp2691
g12
asVan
p2692
(lp2693
g11
ag24
ag15
ag6
ag12
asVpresent
p2694
(lp2695
g9
ag10
asVwysynski
p2696
(lp2697
g6
asValign
p2698
(lp2699
g24
asVvalue
p2700
(lp2701
g75
ag76
asVwill
p2702
(lp2703
g15
ag58
asVvspace
p2704
(lp2705
g24
asVwilk
p2706
(lp2707
g6
asVuoft_stark
p2708
(lp2709
g15
asVgraduate-level
p2710
(lp2711
g9
ag10
asVvi
p2712
(lp2713
g6
asVsite
p2714
(lp2715
g11
ag15
asVsurface
p2716
(lp2717
g24
asVhardware
p2718
(lp2719
g9
ag10
ag11
ag12
ag3
asVcapalija
p2720
(lp2721
g6
asVnserc
p2722
(lp2723
g11
asVkhoman
p2724
(lp2725
g6
asVeric
p2726
(lp2727
g6
asVmatthew
p2728
(lp2729
g6
asVspeaker
p2730
(lp2731
g11
asVgets
p2732
(lp2733
g11
asVyoon
p2734
(lp2735
g6
asVhttp
p2736
(lp2737
g9
ag10
ag11
ag15
ag43
ag12
asVconvocation
p2738
(lp2739
g15
asVfranjo
p2740
(lp2741
g6
asVphd
p2742
(lp2743
g11
asVv5
p2744
(lp2745
g11
asV887668ed1c688d49032ce0ad1cc406fd-respond
p2746
(lp2747
g75
ag76
asVantonia
p2748
(lp2749
g6
asVcenter
p2750
(lp2751
g43
asVassistantships
p2752
(lp2753
g11
ag24
asVcolour
p2754
(lp2755
g12
asVphan
p2756
(lp2757
g6
asVenglish
p2758
(lp2759
g9
ag10
asVwell-equipped
p2760
(lp2761
g12
asVlatest
p2762
(lp2763
g11
ag15
asValireza
p2764
(lp2765
g6
asVpaul
p2766
(lp2767
g6
ag43
asVsmith
p2768
(lp2769
g43
asVhellyar
p2770
(lp2771
g6
asV2-explore
p2772
(lp2773
g15
asVoptimizations
p2774
(lp2775
g101
asVlivio
p2776
(lp2777
g6
asVdapeng
p2778
(lp2779
g6
ag101
asVfive
p2780
(lp2781
g12
asVdesk
p2782
(lp2783
g12
asVofferings
p2784
(lp2785
g9
ag10
asVsizes
p2786
(lp2787
g15
asVvibrant
p2788
(lp2789
g11
asVfernando
p2790
(lp2791
g6
asVlp484
p2792
(lp2793
g6
ag43
ag12
ag3
ag58
asVmartin
p2794
(lp2795
g101
asVsoft
p2796
(lp2797
g3
asVpage
p2798
(lp2799
g15
asVlibrary
p2800
(lp2801
g9
ag10
ag11
ag24
ag15
ag101
asVa-z
p2802
(lp2803
g15
asVamza
p2804
(lp2805
g43
ag3
asVreimagine
p2806
(lp2807
g15
asVhome
p2808
(lp2809
g9
ag10
ag11
ag24
asVpeter
p2810
(lp2811
g6
asVtooraj
p2812
(lp2813
g6
asVest
p2814
(lp2815
g101
asVjeremy
p2816
(lp2817
g6
asVcross-domain
p2818
(lp2819
g75
ag76
asVmulti-resolution
p2820
(lp2821
g101
asVe-mail
p2822
(lp2823
g24
asVswartz
p2824
(lp2825
g6
asVprogramable
p2826
(lp2827
g12
asVtuyet
p2828
(lp2829
g15
asVabout
p2830
(lp2831
g9
ag10
ag11
ag24
ag15
asVboards
p2832
(lp2833
g12
asVrecognized
p2834
(lp2835
g9
ag10
asVcosmopolitan
p2836
(lp2837
g11
asVsoftware
p2838
(lp2839
g9
ag10
ag11
ag24
ag12
ag3
asVesmailian
p2840
(lp2841
g6
asVown
p2842
(lp2843
g12
asVglenn
p2844
(lp2845
g43
asVh2
p2846
(lp2847
g15
asVh3
p2848
(lp2849
g15
asVsteffan
p2850
(lp2851
g6
ag43
ag3
ag101
asVfemale
p2852
(lp2853
g15
asVregistration
p2854
(lp2855
g11
ag24
asVdescriptions
p2856
(lp2857
g9
ag10
asVnetworking
p2858
(lp2859
g11
asV1980
p2860
(lp2861
g9
ag10
asVhousing
p2862
(lp2863
g11
ag24
asV18um
p2864
(lp2865
g12
asVfieldimg
p2866
(lp2867
g15
asVexhibit-wisdom-photo-project
p2868
(lp2869
g15
asVnorth
p2870
(lp2871
g11
asVrodger
p2872
(lp2873
g6
asVhp
p2874
(lp2875
g12
asVbut
p2876
(lp2877
g6
asVho
p2878
(lp2879
g6
asVtechnician
p2880
(lp2881
g12
asVhighest
p2882
(lp2883
g9
ag10
ag11
asVdavor
p2884
(lp2885
g6
asVplaces
p2886
(lp2887
g15
asVmulti-fpga
p2888
(lp2889
g101
asVranks
p2890
(lp2891
g11
asVstories
p2892
(lp2893
g11
ag15
asVresearchideas
p2894
(lp2895
g24
asV25um
p2896
(lp2897
g12
asV728
p2898
(lp2899
g24
asVrecounts
p2900
(lp2901
g15
asVcontextual-links-region
p2902
(lp2903
g15
asVeducation
p2904
(lp2905
g9
ag10
asVcampus
p2906
(lp2907
g11
ag15
ag12
asVcmos
p2908
(lp2909
g12
asVinc
p2910
(lp2911
g43
asVfunctions
p2912
(lp2913
g11
asVcorporation
p2914
(lp2915
g12
asVother
p2916
(lp2917
g24
ag12
asVshannon
p2918
(lp2919
g6
asVcontacting
p2920
(lp2921
g11
asVmonday
p2922
(lp2923
g15
asVstay
p2924
(lp2925
g11
asVbreadcrumb
p2926
(lp2927
g15
asVcrete
p2928
(lp2929
g43
asVinspiration
p2930
(lp2931
g11
asVphotonics
p2932
(lp2933
g11
asVstarting
p2934
(lp2935
g58
asVmicroelectronics
p2936
(lp2937
g12
asVdiagnosis
p2938
(lp2939
g3
asVactivism
p2940
(lp2941
g15
as.(dp0
Vhttp://www.eecg.toronto.edu/Welcome.html
p1
S'Computer Engineering Research Group'
p2
sVhttp://www.eecg.toronto.edu/facilities.html
p3
S'Computer Engineering Group Research Facilities'
p4
sVhttp://www.eecg.toronto.edu/grads.html
p5
S'Computer Engineering Group Graduate Students'
p6
sVhttp://www.eecg.toronto.edu/projects.html
p7
S'Computer Engineering Group Major Research Areas and Projects'
p8
sVhttp://www.mapquest.com/maps/map.adp?countryid=41&addtohistory=&country=CA&address=10+King%27s+College+Road&city=Toronto&state=ON&zipcode=M5S+3G4&submit=Get+Map
p9
S'10 King&#x27;s College Rd - Toronto ON - MapQuest'
p10
sVhttp://www.eecg.toronto.edu/~exec/thesis_lib/
p11
S'Computer Group Online Thesis Library'
p12
sVhttp://www.utoronto.ca
p13
S'University of Toronto'
p14
sVhttp://www.eecg.toronto.edu/faculty.html
p15
S'Computer Engineering Group Faculty'
p16
sVhttp://www.eecg.toronto.edu/~exec/student_guide/Main/index.shtml
p17
S'EECG Student Guide'
p18
sVhttp://www.mapquest.com/maps?address=10+King%27s+College+Road&city=Toronto&state=ON&zipcode=M5S+3G4&country=CA
p19
S'10 King&#x27;s College Rd - Toronto ON - MapQuest'
p20
sVhttp://www.eecg.toronto.edu/tech_reports/index.html
p21
S'Computer Engineering Research Group'
p22
sVhttp://www.ece.utoronto.ca
p23
S'Home - Electrical &amp; Computer Engineering | Electrical &amp; Computer Engineering'
p24
sS'http://www.eecg.toronto.edu/'
p25
S'Computer Engineering Research Group'
p26
s.(dp0
Vhttp://www.eecg.toronto.edu/Welcome.html
p1
S'The department is divided for the purposes of graduate-level research activity\ninto eight  groups. The\nComputer Engineering Group was established arou...'
p2
sVhttp://www.eecg.toronto.edu/facilities.html
p3
S'There is easy access to computer terminals and workstations.\nThe Computer Engineering Group runs its own cluster of machines that is\ncentered around a...'
p4
sVhttp://www.eecg.toronto.edu/grads.html
p5
S''
p6
sVhttp://www.eecg.toronto.edu/projects.html
p7
S'Human Computer Interaction \n \n Wearable Computing ( Mann )\n Computer Vision ( MacLean )\n Biomedical Cybernetics ( Wong )\n Multi-Sensor Information Sys...'
p8
sVhttp://www.mapquest.com/maps/map.adp?countryid=41&addtohistory=&country=CA&address=10+King%27s+College+Road&city=Toronto&state=ON&zipcode=M5S+3G4&submit=Get+Map
p9
S"View detailed information and reviews for 10 King's College Rd in Toronto,  and get driving directions with road conditions and live traffic updates a..."
p10
sVhttp://www.utoronto.ca
p11
S'Curated stories from 30+ U of T publications, highlighting the people and issues shaping our global community.'
p12
sVhttp://www.eecg.toronto.edu/~exec/student_guide/Main/index.shtml
p13
S'The EECG Student Guide'
p14
sVhttp://www.mapquest.com/maps?address=10+King%27s+College+Road&city=Toronto&state=ON&zipcode=M5S+3G4&country=CA
p15
S"View detailed information and reviews for 10 King's College Rd in Toronto,  and get driving directions with road conditions and live traffic updates a..."
p16
sVhttp://www.ece.utoronto.ca
p17
S'The Edward S. Rogers Sr. Department of Electrical &amp; Computer Engineering (ECE) consistently ranks among the top in North America. It attracts outs...'
p18
sS'http://www.eecg.toronto.edu/'
p19
S'The department is divided for the purposes of graduate-level research activity\ninto eight  groups. The\nComputer Engineering Group was established arou...'
p20
s.